; Function Attrs: mustprogress uwtable
define void @_ZNK8facebook5velox4core12HashJoinNode10addDetailsERNSt7__cxx1118basic_stringstreamIcSt11char_traitsIcESaIcEEE(ptr nocapture noundef nonnull readonly align 8 dereferenceable(153) %this, ptr noundef nonnull align 8 dereferenceable(128) %stream) unnamed_addr #0 align 2 {
entry:
  tail call void @_ZNK8facebook5velox4core16AbstractJoinNode10addDetailsERNSt7__cxx1118basic_stringstreamIcSt11char_traitsIcESaIcEEE(ptr noundef nonnull align 8 dereferenceable(152) %this, ptr noundef nonnull align 8 dereferenceable(128) %stream)
  %nullAware_ = getelementptr inbounds i8, ptr %this, i64 152
  %0 = load i8, ptr %nullAware_, align 8
  %1 = and i8 %0, 1
  %tobool.not = icmp eq i8 %1, 0
  br i1 %tobool.not, label %if.end, label %if.then

if.then:                                          ; preds = %entry
  %add.ptr = getelementptr inbounds i8, ptr %stream, i64 16
  %call = tail call noundef nonnull align 8 dereferenceable(8) ptr @_ZStlsISt11char_traitsIcEERSt13basic_ostreamIcT_ES5_PKc(ptr noundef nonnull align 8 dereferenceable(8) %add.ptr, ptr noundef nonnull @.str.69)
  br label %if.end

if.end:                                           ; preds = %if.then, %entry
  ret void
}